; Function Attrs: mustprogress nofree norecurse nosync nounwind memory(read, argmem: readwrite, inaccessiblemem: none) uwtable
define internal noundef i64 @_ZNK5faiss12_GLOBAL__N_110IVFScannerINS_17HammingComputer16EE10scan_codesEmPKhPKlPfPlm(ptr nocapture noundef nonnull readonly align 8 dereferenceable(152) %0, i64 noundef %1, ptr nocapture noundef readonly %2, ptr nocapture noundef readonly %3, ptr nocapture noundef %4, ptr nocapture noundef %5, i64 noundef %6) unnamed_addr #17 align 2 {
  %.not24 = icmp eq i64 %1, 0
  br i1 %.not24, label %._crit_edge, label %.lr.ph

.lr.ph:                                           ; preds = %7
  %8 = getelementptr inbounds i8, ptr %0, i64 136
  %9 = getelementptr inbounds i8, ptr %0, i64 17
  %10 = getelementptr inbounds i8, ptr %0, i64 8
  %11 = getelementptr inbounds i8, ptr %4, i64 -4
  %12 = getelementptr inbounds i8, ptr %5, i64 -8
  %13 = icmp ult i64 %6, 2
  %.phi.trans.insert.i.i = getelementptr inbounds float, ptr %11, i64 %6
  %14 = getelementptr inbounds i8, ptr %0, i64 32
  br label %15

15:                                               ; preds = %.lr.ph, %76
  %.023 = phi ptr [ %2, %.lr.ph ], [ %78, %76 ]
  %.01722 = phi i64 [ 0, %.lr.ph ], [ %.1, %76 ]
  %.01820 = phi i64 [ 0, %.lr.ph ], [ %79, %76 ]
  %16 = load <2 x i64>, ptr %.023, align 8
  %17 = load <2 x i64>, ptr %8, align 8
  %18 = xor <2 x i64> %17, %16
  %19 = tail call <2 x i64> @llvm.ctpop.v2i64(<2 x i64> %18), !range !13
  %20 = trunc <2 x i64> %19 to <2 x i32>
  %shift = shufflevector <2 x i32> %20, <2 x i32> poison, <2 x i32> <i32 1, i32 poison>
  %21 = add nuw nsw <2 x i32> %shift, %20
  %22 = extractelement <2 x i32> %21, i64 0
  %23 = sitofp i32 %22 to float
  %24 = load float, ptr %4, align 4
  %25 = fcmp ogt float %24, %23
  br i1 %25, label %26, label %76

26:                                               ; preds = %15
  %27 = load i8, ptr %9, align 1
  %28 = and i8 %27, 1
  %.not = icmp eq i8 %28, 0
  br i1 %.not, label %33, label %29

29:                                               ; preds = %26
  %30 = load i64, ptr %10, align 8
  %31 = shl i64 %30, 32
  %32 = or i64 %31, %.01820
  br label %36

33:                                               ; preds = %26
  %34 = getelementptr inbounds i64, ptr %3, i64 %.01820
  %35 = load i64, ptr %34, align 8
  br label %36

36:                                               ; preds = %33, %29
  %37 = phi i64 [ %32, %29 ], [ %35, %33 ]
  br i1 %13, label %_ZN5faiss19maxheap_replace_topIfEEvmPT_PlS1_l.exit, label %.lr.ph.i.i

.lr.ph.i.i:                                       ; preds = %36, %66
  %38 = phi i64 [ %71, %66 ], [ 3, %36 ]
  %39 = phi i64 [ %70, %66 ], [ 2, %36 ]
  %.056.i.i = phi i64 [ %.1.i.i, %66 ], [ 1, %36 ]
  %40 = icmp eq i64 %39, %6
  br i1 %40, label %.lr.ph._ZN5faiss4CMaxIflE4cmp2Effll.exit.thread_crit_edge.i.i, label %41

.lr.ph._ZN5faiss4CMaxIflE4cmp2Effll.exit.thread_crit_edge.i.i: ; preds = %.lr.ph.i.i
  %.pre.i.i = load float, ptr %.phi.trans.insert.i.i, align 4
  br label %_ZN5faiss4CMaxIflE4cmp2Effll.exit.thread.i.i

41:                                               ; preds = %.lr.ph.i.i
  %42 = getelementptr inbounds float, ptr %11, i64 %39
  %43 = load float, ptr %42, align 4
  %44 = getelementptr inbounds float, ptr %11, i64 %38
  %45 = load float, ptr %44, align 4
  %46 = getelementptr inbounds i64, ptr %12, i64 %38
  %47 = load i64, ptr %46, align 8
  %48 = fcmp ogt float %43, %45
  br i1 %48, label %_ZN5faiss4CMaxIflE4cmp2Effll.exit.thread.i.i, label %_ZN5faiss4CMaxIflE4cmp2Effll.exit.i.i

_ZN5faiss4CMaxIflE4cmp2Effll.exit.i.i:            ; preds = %41
  %49 = getelementptr inbounds i64, ptr %12, i64 %39
  %50 = load i64, ptr %49, align 8
  %51 = fcmp oeq float %43, %45
  %52 = icmp sgt i64 %50, %47
  %53 = and i1 %51, %52
  br i1 %53, label %_ZN5faiss4CMaxIflE4cmp2Effll.exit.thread.i.i, label %61

_ZN5faiss4CMaxIflE4cmp2Effll.exit.thread.i.i:     ; preds = %_ZN5faiss4CMaxIflE4cmp2Effll.exit.i.i, %41, %.lr.ph._ZN5faiss4CMaxIflE4cmp2Effll.exit.thread_crit_edge.i.i
  %54 = phi float [ %.pre.i.i, %.lr.ph._ZN5faiss4CMaxIflE4cmp2Effll.exit.thread_crit_edge.i.i ], [ %43, %41 ], [ %43, %_ZN5faiss4CMaxIflE4cmp2Effll.exit.i.i ]
  %55 = fcmp olt float %54, %23
  br i1 %55, label %_ZN5faiss19maxheap_replace_topIfEEvmPT_PlS1_l.exit, label %_ZN5faiss4CMaxIflE4cmp2Effll.exit54.i.i

_ZN5faiss4CMaxIflE4cmp2Effll.exit54.i.i:          ; preds = %_ZN5faiss4CMaxIflE4cmp2Effll.exit.thread.i.i
  %56 = getelementptr inbounds i64, ptr %12, i64 %39
  %57 = load i64, ptr %56, align 8
  %58 = fcmp oeq float %54, %23
  %59 = icmp slt i64 %57, %37
  %60 = and i1 %58, %59
  br i1 %60, label %_ZN5faiss19maxheap_replace_topIfEEvmPT_PlS1_l.exit, label %66

61:                                               ; preds = %_ZN5faiss4CMaxIflE4cmp2Effll.exit.i.i
  %62 = fcmp olt float %45, %23
  br i1 %62, label %_ZN5faiss19maxheap_replace_topIfEEvmPT_PlS1_l.exit, label %_ZN5faiss4CMaxIflE4cmp2Effll.exit55.i.i

_ZN5faiss4CMaxIflE4cmp2Effll.exit55.i.i:          ; preds = %61
  %63 = fcmp oeq float %45, %23
  %64 = icmp slt i64 %47, %37
  %65 = and i1 %63, %64
  br i1 %65, label %_ZN5faiss19maxheap_replace_topIfEEvmPT_PlS1_l.exit, label %66

66:                                               ; preds = %_ZN5faiss4CMaxIflE4cmp2Effll.exit55.i.i, %_ZN5faiss4CMaxIflE4cmp2Effll.exit54.i.i
  %.sink.i.i = phi float [ %54, %_ZN5faiss4CMaxIflE4cmp2Effll.exit54.i.i ], [ %45, %_ZN5faiss4CMaxIflE4cmp2Effll.exit55.i.i ]
  %.sink63.i.i = phi ptr [ %56, %_ZN5faiss4CMaxIflE4cmp2Effll.exit54.i.i ], [ %46, %_ZN5faiss4CMaxIflE4cmp2Effll.exit55.i.i ]
  %.1.i.i = phi i64 [ %39, %_ZN5faiss4CMaxIflE4cmp2Effll.exit54.i.i ], [ %38, %_ZN5faiss4CMaxIflE4cmp2Effll.exit55.i.i ]
  %67 = getelementptr inbounds float, ptr %11, i64 %.056.i.i
  store float %.sink.i.i, ptr %67, align 4
  %68 = load i64, ptr %.sink63.i.i, align 8
  %69 = getelementptr inbounds i64, ptr %12, i64 %.056.i.i
  store i64 %68, ptr %69, align 8
  %70 = shl i64 %.1.i.i, 1
  %71 = or disjoint i64 %70, 1
  %72 = icmp ugt i64 %70, %6
  br i1 %72, label %_ZN5faiss19maxheap_replace_topIfEEvmPT_PlS1_l.exit, label %.lr.ph.i.i, !llvm.loop !27

_ZN5faiss19maxheap_replace_topIfEEvmPT_PlS1_l.exit: ; preds = %_ZN5faiss4CMaxIflE4cmp2Effll.exit.thread.i.i, %_ZN5faiss4CMaxIflE4cmp2Effll.exit54.i.i, %61, %_ZN5faiss4CMaxIflE4cmp2Effll.exit55.i.i, %66, %36
  %.0.lcssa.i.i = phi i64 [ 1, %36 ], [ %.056.i.i, %61 ], [ %.056.i.i, %_ZN5faiss4CMaxIflE4cmp2Effll.exit.thread.i.i ], [ %.056.i.i, %_ZN5faiss4CMaxIflE4cmp2Effll.exit55.i.i ], [ %.056.i.i, %_ZN5faiss4CMaxIflE4cmp2Effll.exit54.i.i ], [ %.1.i.i, %66 ]
  %73 = getelementptr inbounds float, ptr %11, i64 %.0.lcssa.i.i
  store float %23, ptr %73, align 4
  %74 = getelementptr inbounds i64, ptr %12, i64 %.0.lcssa.i.i
  store i64 %37, ptr %74, align 8
  %75 = add i64 %.01722, 1
  br label %76

76:                                               ; preds = %_ZN5faiss19maxheap_replace_topIfEEvmPT_PlS1_l.exit, %15
  %.1 = phi i64 [ %75, %_ZN5faiss19maxheap_replace_topIfEEvmPT_PlS1_l.exit ], [ %.01722, %15 ]
  %77 = load i64, ptr %14, align 8
  %78 = getelementptr inbounds i8, ptr %.023, i64 %77
  %79 = add nuw i64 %.01820, 1
  %exitcond.not = icmp eq i64 %79, %1
  br i1 %exitcond.not, label %._crit_edge, label %15, !llvm.loop !31

._crit_edge:                                      ; preds = %76, %7
  %.017.lcssa = phi i64 [ 0, %7 ], [ %.1, %76 ]
  ret i64 %.017.lcssa
}